	.cpu cortex-m4
	.arch armv7e-m
	.fpu softvfp
	.eabi_attribute 20, 1
	.eabi_attribute 21, 1
	.eabi_attribute 23, 3
	.eabi_attribute 24, 1
	.eabi_attribute 25, 1
	.eabi_attribute 26, 1
	.eabi_attribute 30, 6
	.eabi_attribute 34, 1
	.eabi_attribute 18, 4
	.file	"main.c"
	.text
.Ltext0:
	.cfi_sections	.debug_frame
	.file 1 "Src/main.c"
	.global	test
	.bss
	.align	2
	.type	test, %object
	.size	test, 4
test:
	.space	4
	.global	error
	.type	error, %object
	.size	error, 1
error:
	.space	1
	.global	Gpioled
	.align	2
	.type	Gpioled, %object
	.size	Gpioled, 16
Gpioled:
	.space	16
	.global	Task1
	.align	2
	.type	Task1, %object
	.size	Task1, 68
Task1:
	.space	68
	.global	Task2
	.align	2
	.type	Task2, %object
	.size	Task2, 68
Task2:
	.space	68
	.global	Task3
	.align	2
	.type	Task3, %object
	.size	Task3, 68
Task3:
	.space	68
	.global	Task4
	.align	2
	.type	Task4, %object
	.size	Task4, 68
Task4:
	.space	68
	.global	Task1LED
	.type	Task1LED, %object
	.size	Task1LED, 1
Task1LED:
	.space	1
	.global	Task2LED
	.type	Task2LED, %object
	.size	Task2LED, 1
Task2LED:
	.space	1
	.global	Task3LED
	.type	Task3LED, %object
	.size	Task3LED, 1
Task3LED:
	.space	1
	.global	Task4LED
	.type	Task4LED, %object
	.size	Task4LED, 1
Task4LED:
	.space	1
	.global	Mutex1
	.align	2
	.type	Mutex1, %object
	.size	Mutex1, 48
Mutex1:
	.space	48
	.global	payload
	.data
	.align	2
	.type	payload, %object
	.size	payload, 3
payload:
	.ascii	"\001\002\003"
	.text
	.align	1
	.global	task1
	.syntax unified
	.thumb
	.thumb_func
	.type	task1, %function
task1:
.LFB126:
	.loc 1 45 1
	.cfi_startproc
	@ args = 0, pretend = 0, frame = 0
	@ frame_needed = 1, uses_anonymous_args = 0
	push	{r7, lr}
	.cfi_def_cfa_offset 8
	.cfi_offset 7, -8
	.cfi_offset 14, -4
	add	r7, sp, #0
	.cfi_def_cfa_register 7
.L4:
	.loc 1 49 18
	ldr	r3, .L5
	ldrb	r3, [r3]	@ zero_extendqisi2
	eor	r3, r3, #1
	uxtb	r2, r3
	ldr	r3, .L5
	strb	r2, [r3]
	.loc 1 50 14
	ldr	r3, .L5+4
	ldr	r3, [r3]
	adds	r3, r3, #1
	ldr	r2, .L5+4
	str	r3, [r2]
	.loc 1 51 2
	movs	r2, #1
	movs	r1, #12
	ldr	r0, .L5+8
	bl	MCAL_GPIO_WritePin
	.loc 1 53 19
	ldr	r3, .L5+4
	ldr	r3, [r3]
	.loc 1 53 12
	cmp	r3, #100
	bne	.L2
	.loc 1 55 13
	ldr	r1, .L5+12
	ldr	r0, .L5+16
	bl	MHxRTOS_AcquireMutex
	.loc 1 56 13
	ldr	r0, .L5+20
	bl	MHxRTOS_ActivateTask
.L2:
	.loc 1 58 19
	ldr	r3, .L5+4
	ldr	r3, [r3]
	.loc 1 58 12
	cmp	r3, #200
	bne	.L4
	.loc 1 60 19
	ldr	r3, .L5+4
	movs	r2, #0
	str	r2, [r3]
	.loc 1 61 13
	ldr	r0, .L5+16
	bl	MHxRTOS_ReleaseMutex
	.loc 1 49 18
	b	.L4
.L6:
	.align	2
.L5:
	.word	Task1LED
	.word	Count.3
	.word	1073875968
	.word	Task1
	.word	Mutex1
	.word	Task2
	.cfi_endproc
.LFE126:
	.size	task1, .-task1
	.align	1
	.global	task2
	.syntax unified
	.thumb
	.thumb_func
	.type	task2, %function
task2:
.LFB127:
	.loc 1 66 1
	.cfi_startproc
	@ args = 0, pretend = 0, frame = 0
	@ frame_needed = 1, uses_anonymous_args = 0
	push	{r7, lr}
	.cfi_def_cfa_offset 8
	.cfi_offset 7, -8
	.cfi_offset 14, -4
	add	r7, sp, #0
	.cfi_def_cfa_register 7
.L10:
	.loc 1 70 18
	ldr	r3, .L11
	ldrb	r3, [r3]	@ zero_extendqisi2
	eor	r3, r3, #1
	uxtb	r2, r3
	ldr	r3, .L11
	strb	r2, [r3]
	.loc 1 71 14
	ldr	r3, .L11+4
	ldr	r3, [r3]
	adds	r3, r3, #1
	ldr	r2, .L11+4
	str	r3, [r2]
	.loc 1 72 2
	movs	r2, #1
	movs	r1, #13
	ldr	r0, .L11+8
	bl	MCAL_GPIO_WritePin
	.loc 1 74 19
	ldr	r3, .L11+4
	ldr	r3, [r3]
	.loc 1 74 12
	cmp	r3, #100
	bne	.L8
	.loc 1 76 13
	ldr	r0, .L11+12
	bl	MHxRTOS_ActivateTask
.L8:
	.loc 1 78 19
	ldr	r3, .L11+4
	ldr	r3, [r3]
	.loc 1 78 12
	cmp	r3, #200
	bne	.L10
	.loc 1 80 19
	ldr	r3, .L11+4
	movs	r2, #0
	str	r2, [r3]
	.loc 1 81 13
	ldr	r0, .L11+16
	bl	MHxRTOS_TerminateTask
	.loc 1 70 18
	b	.L10
.L12:
	.align	2
.L11:
	.word	Task2LED
	.word	Count.2
	.word	1073875968
	.word	Task3
	.word	Task2
	.cfi_endproc
.LFE127:
	.size	task2, .-task2
	.align	1
	.global	task3
	.syntax unified
	.thumb
	.thumb_func
	.type	task3, %function
task3:
.LFB128:
	.loc 1 86 1
	.cfi_startproc
	@ args = 0, pretend = 0, frame = 0
	@ frame_needed = 1, uses_anonymous_args = 0
	push	{r7, lr}
	.cfi_def_cfa_offset 8
	.cfi_offset 7, -8
	.cfi_offset 14, -4
	add	r7, sp, #0
	.cfi_def_cfa_register 7
.L16:
	.loc 1 90 18
	ldr	r3, .L17
	ldrb	r3, [r3]	@ zero_extendqisi2
	eor	r3, r3, #1
	uxtb	r2, r3
	ldr	r3, .L17
	strb	r2, [r3]
	.loc 1 91 14
	ldr	r3, .L17+4
	ldr	r3, [r3]
	adds	r3, r3, #1
	ldr	r2, .L17+4
	str	r3, [r2]
	.loc 1 92 2
	movs	r2, #1
	movs	r1, #14
	ldr	r0, .L17+8
	bl	MCAL_GPIO_WritePin
	.loc 1 94 19
	ldr	r3, .L17+4
	ldr	r3, [r3]
	.loc 1 94 12
	cmp	r3, #100
	bne	.L14
	.loc 1 96 13
	ldr	r0, .L17+12
	bl	MHxRTOS_ActivateTask
.L14:
	.loc 1 98 19
	ldr	r3, .L17+4
	ldr	r3, [r3]
	.loc 1 98 12
	cmp	r3, #200
	bne	.L16
	.loc 1 100 19
	ldr	r3, .L17+4
	movs	r2, #0
	str	r2, [r3]
	.loc 1 101 13
	ldr	r0, .L17+16
	bl	MHxRTOS_TerminateTask
	.loc 1 90 18
	b	.L16
.L18:
	.align	2
.L17:
	.word	Task3LED
	.word	Count.1
	.word	1073875968
	.word	Task4
	.word	Task3
	.cfi_endproc
.LFE128:
	.size	task3, .-task3
	.align	1
	.global	task4
	.syntax unified
	.thumb
	.thumb_func
	.type	task4, %function
task4:
.LFB129:
	.loc 1 106 1
	.cfi_startproc
	@ args = 0, pretend = 0, frame = 0
	@ frame_needed = 1, uses_anonymous_args = 0
	push	{r7, lr}
	.cfi_def_cfa_offset 8
	.cfi_offset 7, -8
	.cfi_offset 14, -4
	add	r7, sp, #0
	.cfi_def_cfa_register 7
.L22:
	.loc 1 110 18
	ldr	r3, .L23
	ldrb	r3, [r3]	@ zero_extendqisi2
	eor	r3, r3, #1
	uxtb	r2, r3
	ldr	r3, .L23
	strb	r2, [r3]
	.loc 1 111 14
	ldr	r3, .L23+4
	ldr	r3, [r3]
	adds	r3, r3, #1
	ldr	r2, .L23+4
	str	r3, [r2]
	.loc 1 112 2
	movs	r2, #1
	movs	r1, #15
	ldr	r0, .L23+8
	bl	MCAL_GPIO_WritePin
	.loc 1 114 19
	ldr	r3, .L23+4
	ldr	r3, [r3]
	.loc 1 114 12
	cmp	r3, #3
	bne	.L20
	.loc 1 116 13
	ldr	r1, .L23+12
	ldr	r0, .L23+16
	bl	MHxRTOS_AcquireMutex
.L20:
	.loc 1 118 19
	ldr	r3, .L23+4
	ldr	r3, [r3]
	.loc 1 118 12
	cmp	r3, #200
	bne	.L22
	.loc 1 120 19
	ldr	r3, .L23+4
	movs	r2, #0
	str	r2, [r3]
	.loc 1 121 13
	ldr	r0, .L23+16
	bl	MHxRTOS_ReleaseMutex
	.loc 1 122 13
	ldr	r0, .L23+12
	bl	MHxRTOS_TerminateTask
	.loc 1 110 18
	b	.L22
.L24:
	.align	2
.L23:
	.word	Task4LED
	.word	Count.0
	.word	1073875968
	.word	Task4
	.word	Mutex1
	.cfi_endproc
.LFE129:
	.size	task4, .-task4
	.section	.rodata
	.align	2
.LC0:
	.ascii	"Mutex1\000"
	.align	2
.LC1:
	.ascii	"task_1\000"
	.align	2
.LC2:
	.ascii	"task_2\000"
	.align	2
.LC3:
	.ascii	"task_3\000"
	.align	2
.LC4:
	.ascii	"task_4\000"
	.text
	.align	1
	.global	main
	.syntax unified
	.thumb
	.thumb_func
	.type	main, %function
main:
.LFB130:
	.loc 1 129 1
	.cfi_startproc
	@ args = 0, pretend = 0, frame = 24
	@ frame_needed = 1, uses_anonymous_args = 0
	push	{r7, lr}
	.cfi_def_cfa_offset 8
	.cfi_offset 7, -8
	.cfi_offset 14, -4
	sub	sp, sp, #24
	.cfi_def_cfa_offset 32
	add	r7, sp, #0
	.cfi_def_cfa_register 7
.LBB7:
.LBB8:
	.file 2 "CMSIS/Inc/core_cmFunc.h"
	.loc 2 361 3
	.syntax unified
@ 361 "CMSIS/Inc/core_cmFunc.h" 1
	MRS r3, control
@ 0 "" 2
	.thumb
	.syntax unified
	str	r3, [r7, #16]
	.loc 2 362 9
	ldr	r3, [r7, #16]
.LBE8:
.LBE7:
	.loc 1 131 24
	and	r3, r3, #1
	.loc 1 131 7
	cmp	r3, #0
	beq	.L27
	.loc 1 132 12
	ldr	r3, .L34
	movs	r2, #7
	str	r2, [r3]
	b	.L28
.L27:
	.loc 1 134 12
	ldr	r3, .L34
	movs	r2, #10
	str	r2, [r3]
.L28:
	.loc 1 138 5
	movs	r0, #3
	bl	MCAL_RCC_Enable_Peripheral
	.loc 1 141 23
	ldr	r3, .L34+4
	movs	r2, #1
	strb	r2, [r3]
	.loc 1 142 28
	ldr	r3, .L34+4
	movs	r2, #0
	str	r2, [r3, #8]
	.loc 1 143 27
	ldr	r3, .L34+4
	movs	r2, #1
	strb	r2, [r3, #1]
	.loc 1 144 33
	ldr	r3, .L34+4
	movs	r2, #0
	str	r2, [r3, #4]
.LBB9:
	.loc 1 146 13
	movs	r3, #0
	str	r3, [r7, #20]
	.loc 1 146 5
	b	.L29
.L30:
	.loc 1 147 28 discriminator 3
	ldr	r3, [r7, #20]
	uxth	r2, r3
	ldr	r3, .L34+4
	strh	r2, [r3, #2]	@ movhi
	.loc 1 148 5 discriminator 3
	ldr	r1, .L34+4
	ldr	r0, .L34+8
	bl	MCAL_GPIO_Init
	.loc 1 146 23 discriminator 3
	ldr	r3, [r7, #20]
	adds	r3, r3, #1
	str	r3, [r7, #20]
.L29:
	.loc 1 146 18 discriminator 1
	ldr	r3, [r7, #20]
	cmp	r3, #15
	ble	.L30
.LBE9:
	.loc 1 151 5
	movs	r2, #1
	movs	r1, #1
	ldr	r0, .L34+8
	bl	MCAL_GPIO_WritePin
	.loc 1 152 5
	movs	r2, #1
	movs	r1, #2
	ldr	r0, .L34+8
	bl	MCAL_GPIO_WritePin
	.loc 1 156 5
	bl	HW_init
	.loc 1 157 9
	bl	MHxRTOS_init
	mov	r3, r0
	.loc 1 157 8
	cmp	r3, #0
	beq	.L31
.L32:
	.loc 1 158 15 discriminator 1
	nop
	b	.L32
.L31:
	.loc 1 160 24
	ldr	r3, .L34+12
	movs	r2, #3
	str	r2, [r3, #4]
	.loc 1 161 21
	ldr	r3, .L34+12
	ldr	r2, .L34+16
	str	r2, [r3]
	.loc 1 162 5
	ldr	r3, .L34+20
	ldr	r2, .L34+24
	ldm	r2, {r0, r1}
	str	r0, [r3]
	adds	r3, r3, #4
	strh	r1, [r3]	@ movhi
	adds	r3, r3, #2
	lsrs	r2, r1, #16
	strb	r2, [r3]
	.loc 1 163 22
	ldr	r3, .L34+28
	mov	r2, #1024
	str	r2, [r3]
	.loc 1 164 23
	ldr	r3, .L34+28
	ldr	r2, .L34+32
	str	r2, [r3, #8]
	.loc 1 165 20
	ldr	r3, .L34+28
	movs	r2, #4
	strb	r2, [r3, #4]
	.loc 1 166 5
	ldr	r3, .L34+36
	ldr	r2, .L34+40
	ldm	r2, {r0, r1}
	str	r0, [r3]
	adds	r3, r3, #4
	strh	r1, [r3]	@ movhi
	adds	r3, r3, #2
	lsrs	r2, r1, #16
	strb	r2, [r3]
	.loc 1 167 22
	ldr	r3, .L34+44
	mov	r2, #1024
	str	r2, [r3]
	.loc 1 168 23
	ldr	r3, .L34+44
	ldr	r2, .L34+48
	str	r2, [r3, #8]
	.loc 1 169 20
	ldr	r3, .L34+44
	movs	r2, #3
	strb	r2, [r3, #4]
	.loc 1 170 5
	ldr	r3, .L34+52
	ldr	r2, .L34+56
	ldm	r2, {r0, r1}
	str	r0, [r3]
	adds	r3, r3, #4
	strh	r1, [r3]	@ movhi
	adds	r3, r3, #2
	lsrs	r2, r1, #16
	strb	r2, [r3]
	.loc 1 171 22
	ldr	r3, .L34+60
	mov	r2, #1024
	str	r2, [r3]
	.loc 1 172 23
	ldr	r3, .L34+60
	ldr	r2, .L34+64
	str	r2, [r3, #8]
	.loc 1 173 20
	ldr	r3, .L34+60
	movs	r2, #2
	strb	r2, [r3, #4]
	.loc 1 174 5
	ldr	r3, .L34+68
	ldr	r2, .L34+72
	ldm	r2, {r0, r1}
	str	r0, [r3]
	adds	r3, r3, #4
	strh	r1, [r3]	@ movhi
	adds	r3, r3, #2
	lsrs	r2, r1, #16
	strb	r2, [r3]
	.loc 1 175 22
	ldr	r3, .L34+76
	mov	r2, #1024
	str	r2, [r3]
	.loc 1 176 23
	ldr	r3, .L34+76
	ldr	r2, .L34+80
	str	r2, [r3, #8]
	.loc 1 177 20
	ldr	r3, .L34+76
	movs	r2, #1
	strb	r2, [r3, #4]
	.loc 1 178 5
	ldr	r3, .L34+84
	ldr	r2, .L34+88
	ldm	r2, {r0, r1}
	str	r0, [r3]
	adds	r3, r3, #4
	strh	r1, [r3]	@ movhi
	adds	r3, r3, #2
	lsrs	r2, r1, #16
	strb	r2, [r3]
	.loc 1 179 14
	ldr	r0, .L34+28
	bl	MHxRTOS_CreateTask
	mov	r3, r0
	mov	r2, r3
	.loc 1 179 11
	ldr	r3, .L34+92
	ldrb	r3, [r3]	@ zero_extendqisi2
	add	r3, r3, r2
	uxtb	r2, r3
	ldr	r3, .L34+92
	strb	r2, [r3]
	.loc 1 180 14
	ldr	r0, .L34+44
	bl	MHxRTOS_CreateTask
	mov	r3, r0
	mov	r2, r3
	.loc 1 180 11
	ldr	r3, .L34+92
	ldrb	r3, [r3]	@ zero_extendqisi2
	add	r3, r3, r2
	uxtb	r2, r3
	ldr	r3, .L34+92
	strb	r2, [r3]
	.loc 1 181 14
	ldr	r0, .L34+60
	bl	MHxRTOS_CreateTask
	mov	r3, r0
	mov	r2, r3
	.loc 1 181 11
	ldr	r3, .L34+92
	ldrb	r3, [r3]	@ zero_extendqisi2
	add	r3, r3, r2
	uxtb	r2, r3
	ldr	r3, .L34+92
	strb	r2, [r3]
	.loc 1 182 14
	ldr	r0, .L34+76
	bl	MHxRTOS_CreateTask
	mov	r3, r0
	mov	r2, r3
	.loc 1 182 11
	ldr	r3, .L34+92
	ldrb	r3, [r3]	@ zero_extendqisi2
	add	r3, r3, r2
	uxtb	r2, r3
	ldr	r3, .L34+92
	strb	r2, [r3]
	.loc 1 186 32
	bl	MCAL_RCC_GetSYS_CLKFreq
	mov	r3, r0
	.loc 1 186 30
	uxtb	r3, r3
	strb	r3, [r7, #5]
	.loc 1 187 34
	movs	r3, #2
	strb	r3, [r7, #6]
	.loc 1 188 30
	movw	r3, #15999
	str	r3, [r7, #8]
	.loc 1 189 30
	movs	r3, #1
	strb	r3, [r7, #4]
	.loc 1 190 35
	ldr	r3, .L34+96
	str	r3, [r7, #12]
	.loc 1 191 5
	adds	r3, r7, #4
	mov	r0, r3
	bl	MCAL_STK_Config
.LBB10:
.LBB11:
	.loc 2 336 3
	.syntax unified
@ 336 "CMSIS/Inc/core_cmFunc.h" 1
	cpsie i
@ 0 "" 2
	.loc 2 337 1
	.thumb
	.syntax unified
	nop
.LBE11:
.LBE10:
	.loc 1 194 5
	bl	MCAL_STK_StartTimer
	.loc 1 198 5
	ldr	r0, .L34+28
	bl	MHxRTOS_ActivateTask
	.loc 1 200 5
	bl	MHxRTOS_STARTOS
.L33:
	.loc 1 202 11 discriminator 2
	nop
	b	.L33
.L35:
	.align	2
.L34:
	.word	test
	.word	Gpioled
	.word	1073875968
	.word	Mutex1
	.word	payload
	.word	Mutex1+16
	.word	.LC0
	.word	Task1
	.word	task1
	.word	Task1+28
	.word	.LC1
	.word	Task2
	.word	task2
	.word	Task2+28
	.word	.LC2
	.word	Task3
	.word	task3
	.word	Task3+28
	.word	.LC3
	.word	Task4
	.word	task4
	.word	Task4+28
	.word	.LC4
	.word	error
	.word	SysTick_Callback
	.cfi_endproc
.LFE130:
	.size	main, .-main
	.align	1
	.global	SysTick_Callback
	.syntax unified
	.thumb
	.thumb_func
	.type	SysTick_Callback, %function
SysTick_Callback:
.LFB131:
	.loc 1 206 1
	.cfi_startproc
	@ args = 0, pretend = 0, frame = 0
	@ frame_needed = 1, uses_anonymous_args = 0
	@ link register save eliminated.
	push	{r7}
	.cfi_def_cfa_offset 4
	.cfi_offset 7, -4
	add	r7, sp, #0
	.cfi_def_cfa_register 7
	.loc 1 207 1
	nop
	mov	sp, r7
	.cfi_def_cfa_register 13
	@ sp needed
	pop	{r7}
	.cfi_restore 7
	.cfi_def_cfa_offset 0
	bx	lr
	.cfi_endproc
.LFE131:
	.size	SysTick_Callback, .-SysTick_Callback
	.bss
	.align	2
Count.3:
	.space	4
	.size	Count.3, 4
	.align	2
Count.2:
	.space	4
	.size	Count.2, 4
	.align	2
Count.1:
	.space	4
	.size	Count.1, 4
	.align	2
Count.0:
	.space	4
	.size	Count.0, 4
	.text
.Letext0:
	.file 3 "/opt/st/stm32cubeclt_1.16.0/GNU-tools-for-STM32/arm-none-eabi/include/machine/_default_types.h"
	.file 4 "/opt/st/stm32cubeclt_1.16.0/GNU-tools-for-STM32/arm-none-eabi/include/sys/_stdint.h"
	.file 5 "CMSIS/Inc/stm32f4xx.h"
	.file 6 "drivers/Inc/Platform_Types.h"
	.file 7 "drivers/Inc/stm32f401xx_systick_driver.h"
	.file 8 "drivers/Inc/stm32f401xx_gpio_driver.h"
	.file 9 "RTOS/Inc/task_scheduler.h"
	.file 10 "drivers/Inc/stm32f401xx_rcc_driver.h"
	.file 11 "RTOS/Inc/cortex_mx_os_porting.h"