	.cpu cortex-m4
	.arch armv7e-m
	.fpu softvfp
	.eabi_attribute 20, 1
	.eabi_attribute 21, 1
	.eabi_attribute 23, 3
	.eabi_attribute 24, 1
	.eabi_attribute 25, 1
	.eabi_attribute 26, 1
	.eabi_attribute 30, 6
	.eabi_attribute 34, 1
	.eabi_attribute 18, 4
	.file	"task_scheduler.c"
	.text
.Ltext0:
	.cfi_sections	.debug_frame
	.file 1 "RTOS/Src/task_scheduler.c"
	.global	OS_Control
	.bss
	.align	2
	.type	OS_Control, %object
	.size	OS_Control, 428
OS_Control:
	.space	428
	.global	Ready_QUEUE
	.align	2
	.type	Ready_QUEUE, %object
	.size	Ready_QUEUE, 20
Ready_QUEUE:
	.space	20
	.global	Ready_QUEUE_FIFO
	.align	2
	.type	Ready_QUEUE_FIFO, %object
	.size	Ready_QUEUE_FIFO, 400
Ready_QUEUE_FIFO:
	.space	400
	.global	MHxRTOS_idleTask
	.align	2
	.type	MHxRTOS_idleTask, %object
	.size	MHxRTOS_idleTask, 68
MHxRTOS_idleTask:
	.space	68
	.text
	.align	1
	.global	PendSV_Handler
	.syntax unified
	.thumb
	.thumb_func
	.type	PendSV_Handler, %function
PendSV_Handler:
.LFB126:
	.loc 1 57 1
	.cfi_startproc
	@ Naked Function: prologue and epilogue provided by programmer.
	@ args = 0, pretend = 0, frame = 0
	@ frame_needed = 1, uses_anonymous_args = 0
	.loc 1 62 2
	ldr	r3, .L3
	ldr	r3, [r3, #416]
	.syntax unified
@ 62 "RTOS/Src/task_scheduler.c" 1
	mrs r0,PSP 
	 mov r2,r0
@ 0 "" 2
	.thumb
	.syntax unified
	str	r2, [r3, #24]
	.loc 1 65 12
	ldr	r3, .L3
	ldr	r3, [r3, #416]
	.loc 1 65 24
	ldr	r2, [r3, #24]
	.loc 1 65 37
	subs	r2, r2, #4
	str	r2, [r3, #24]
	.loc 1 66 50
	ldr	r3, .L3
	ldr	r3, [r3, #416]
	.loc 1 66 62
	ldr	r3, [r3, #24]
	.loc 1 66 2
	.syntax unified
@ 66 "RTOS/Src/task_scheduler.c" 1
	mov r2,r4 
@ 0 "" 2
	.thumb
	.syntax unified
	str	r2, [r3]
	.loc 1 67 12
	ldr	r3, .L3
	ldr	r3, [r3, #416]
	.loc 1 67 24
	ldr	r2, [r3, #24]
	.loc 1 67 37
	subs	r2, r2, #4
	str	r2, [r3, #24]
	.loc 1 68 50
	ldr	r3, .L3
	ldr	r3, [r3, #416]
	.loc 1 68 62
	ldr	r3, [r3, #24]
	.loc 1 68 2
	.syntax unified
@ 68 "RTOS/Src/task_scheduler.c" 1
	mov r2,r5 
@ 0 "" 2
	.thumb
	.syntax unified
	str	r2, [r3]
	.loc 1 69 12
	ldr	r3, .L3
	ldr	r3, [r3, #416]
	.loc 1 69 24
	ldr	r2, [r3, #24]
	.loc 1 69 37
	subs	r2, r2, #4
	str	r2, [r3, #24]
	.loc 1 70 50
	ldr	r3, .L3
	ldr	r3, [r3, #416]
	.loc 1 70 62
	ldr	r3, [r3, #24]
	.loc 1 70 2
	.syntax unified
@ 70 "RTOS/Src/task_scheduler.c" 1
	mov r2,r6 
@ 0 "" 2
	.thumb
	.syntax unified
	str	r2, [r3]
	.loc 1 71 12
	ldr	r3, .L3
	ldr	r3, [r3, #416]
	.loc 1 71 24
	ldr	r2, [r3, #24]
	.loc 1 71 37
	subs	r2, r2, #4
	str	r2, [r3, #24]
	.loc 1 72 50
	ldr	r3, .L3
	ldr	r3, [r3, #416]
	.loc 1 72 62
	ldr	r3, [r3, #24]
	.loc 1 72 2
	.syntax unified
@ 72 "RTOS/Src/task_scheduler.c" 1
	mov r2,r7 
@ 0 "" 2
	.thumb
	.syntax unified
	str	r2, [r3]
	.loc 1 73 12
	ldr	r3, .L3
	ldr	r3, [r3, #416]
	.loc 1 73 24
	ldr	r2, [r3, #24]
	.loc 1 73 37
	subs	r2, r2, #4
	str	r2, [r3, #24]
	.loc 1 74 50
	ldr	r3, .L3
	ldr	r3, [r3, #416]
	.loc 1 74 62
	ldr	r3, [r3, #24]
	.loc 1 74 2
	.syntax unified
@ 74 "RTOS/Src/task_scheduler.c" 1
	mov r2,r8 
@ 0 "" 2
	.thumb
	.syntax unified
	str	r2, [r3]
	.loc 1 75 12
	ldr	r3, .L3
	ldr	r3, [r3, #416]
	.loc 1 75 24
	ldr	r2, [r3, #24]
	.loc 1 75 37
	subs	r2, r2, #4
	str	r2, [r3, #24]
	.loc 1 76 50
	ldr	r3, .L3
	ldr	r3, [r3, #416]
	.loc 1 76 62
	ldr	r3, [r3, #24]
	.loc 1 76 2
	.syntax unified
@ 76 "RTOS/Src/task_scheduler.c" 1
	mov r2,r9 
@ 0 "" 2
	.thumb
	.syntax unified
	str	r2, [r3]
	.loc 1 77 12
	ldr	r3, .L3
	ldr	r3, [r3, #416]
	.loc 1 77 24
	ldr	r2, [r3, #24]
	.loc 1 77 37
	subs	r2, r2, #4
	str	r2, [r3, #24]
	.loc 1 78 51
	ldr	r3, .L3
	ldr	r3, [r3, #416]
	.loc 1 78 63
	ldr	r3, [r3, #24]
	.loc 1 78 2
	.syntax unified
@ 78 "RTOS/Src/task_scheduler.c" 1
	mov r2,r10 
@ 0 "" 2
	.thumb
	.syntax unified
	str	r2, [r3]
	.loc 1 79 12
	ldr	r3, .L3
	ldr	r3, [r3, #416]
	.loc 1 79 24
	ldr	r2, [r3, #24]
	.loc 1 79 37
	subs	r2, r2, #4
	str	r2, [r3, #24]
	.loc 1 80 51
	ldr	r3, .L3
	ldr	r3, [r3, #416]
	.loc 1 80 63
	ldr	r3, [r3, #24]
	.loc 1 80 2
	.syntax unified
@ 80 "RTOS/Src/task_scheduler.c" 1
	mov r2,r11 
@ 0 "" 2
	.thumb
	.syntax unified
	str	r2, [r3]
	.loc 1 90 16
	ldr	r3, .L3
	ldr	r3, [r3, #420]
	.loc 1 90 5
	cmp	r3, #0
	beq	.L2
	.loc 1 91 37
	ldr	r3, .L3
	ldr	r3, [r3, #420]
	.loc 1 91 25
	ldr	r2, .L3
	str	r3, [r2, #416]
	.loc 1 92 22
	ldr	r3, .L3
	movs	r2, #0
	str	r2, [r3, #420]
.L2:
	.loc 1 95 52
	ldr	r3, .L3
	ldr	r3, [r3, #416]
	.loc 1 95 64
	ldr	r3, [r3, #24]
	.loc 1 95 40
	ldr	r3, [r3]
	.loc 1 95 2
	.syntax unified
@ 95 "RTOS/Src/task_scheduler.c" 1
	mov r11,r3 
@ 0 "" 2
	.loc 1 96 12
	.thumb
	.syntax unified
	ldr	r3, .L3
	ldr	r3, [r3, #416]
	.loc 1 96 24
	ldr	r2, [r3, #24]
	.loc 1 96 37
	adds	r2, r2, #4
	str	r2, [r3, #24]
	.loc 1 97 52
	ldr	r3, .L3
	ldr	r3, [r3, #416]
	.loc 1 97 64
	ldr	r3, [r3, #24]
	.loc 1 97 40
	ldr	r3, [r3]
	.loc 1 97 2
	.syntax unified
@ 97 "RTOS/Src/task_scheduler.c" 1
	mov r10,r3 
@ 0 "" 2
	.loc 1 98 12
	.thumb
	.syntax unified
	ldr	r3, .L3
	ldr	r3, [r3, #416]
	.loc 1 98 24
	ldr	r2, [r3, #24]
	.loc 1 98 37
	adds	r2, r2, #4
	str	r2, [r3, #24]
	.loc 1 99 51
	ldr	r3, .L3
	ldr	r3, [r3, #416]
	.loc 1 99 63
	ldr	r3, [r3, #24]
	.loc 1 99 39
	ldr	r3, [r3]
	.loc 1 99 2
	.syntax unified
@ 99 "RTOS/Src/task_scheduler.c" 1
	mov r9,r3 
@ 0 "" 2
	.loc 1 100 12
	.thumb
	.syntax unified
	ldr	r3, .L3
	ldr	r3, [r3, #416]
	.loc 1 100 24
	ldr	r2, [r3, #24]
	.loc 1 100 37
	adds	r2, r2, #4
	str	r2, [r3, #24]
	.loc 1 101 51
	ldr	r3, .L3
	ldr	r3, [r3, #416]
	.loc 1 101 63
	ldr	r3, [r3, #24]
	.loc 1 101 39
	ldr	r3, [r3]
	.loc 1 101 2
	.syntax unified
@ 101 "RTOS/Src/task_scheduler.c" 1
	mov r8,r3 
@ 0 "" 2
	.loc 1 102 12
	.thumb
	.syntax unified
	ldr	r3, .L3
	ldr	r3, [r3, #416]
	.loc 1 102 24
	ldr	r2, [r3, #24]
	.loc 1 102 37
	adds	r2, r2, #4
	str	r2, [r3, #24]
	.loc 1 103 51
	ldr	r3, .L3
	ldr	r3, [r3, #416]
	.loc 1 103 63
	ldr	r3, [r3, #24]
	.loc 1 103 39
	ldr	r3, [r3]
	.loc 1 103 2
	.syntax unified
@ 103 "RTOS/Src/task_scheduler.c" 1
	mov r7,r3 
@ 0 "" 2
	.loc 1 104 12
	.thumb
	.syntax unified
	ldr	r3, .L3
	ldr	r3, [r3, #416]
	.loc 1 104 24
	ldr	r2, [r3, #24]
	.loc 1 104 37
	adds	r2, r2, #4
	str	r2, [r3, #24]
	.loc 1 105 51
	ldr	r3, .L3
	ldr	r3, [r3, #416]
	.loc 1 105 63
	ldr	r3, [r3, #24]
	.loc 1 105 39
	ldr	r3, [r3]
	.loc 1 105 2
	.syntax unified
@ 105 "RTOS/Src/task_scheduler.c" 1
	mov r6,r3 
@ 0 "" 2
	.loc 1 106 12
	.thumb
	.syntax unified
	ldr	r3, .L3
	ldr	r3, [r3, #416]
	.loc 1 106 24
	ldr	r2, [r3, #24]
	.loc 1 106 37
	adds	r2, r2, #4
	str	r2, [r3, #24]
	.loc 1 107 51
	ldr	r3, .L3
	ldr	r3, [r3, #416]
	.loc 1 107 63
	ldr	r3, [r3, #24]
	.loc 1 107 39
	ldr	r3, [r3]
	.loc 1 107 2
	.syntax unified
@ 107 "RTOS/Src/task_scheduler.c" 1
	mov r5,r3 
@ 0 "" 2
	.loc 1 108 12
	.thumb
	.syntax unified
	ldr	r3, .L3
	ldr	r3, [r3, #416]
	.loc 1 108 24
	ldr	r2, [r3, #24]
	.loc 1 108 37
	adds	r2, r2, #4
	str	r2, [r3, #24]
	.loc 1 109 51
	ldr	r3, .L3
	ldr	r3, [r3, #416]
	.loc 1 109 63
	ldr	r3, [r3, #24]
	.loc 1 109 39
	ldr	r3, [r3]
	.loc 1 109 2
	.syntax unified
@ 109 "RTOS/Src/task_scheduler.c" 1
	mov r4,r3 
@ 0 "" 2
	.loc 1 110 12
	.thumb
	.syntax unified
	ldr	r3, .L3
	ldr	r3, [r3, #416]
	.loc 1 110 24
	ldr	r2, [r3, #24]
	.loc 1 110 37
	adds	r2, r2, #4
	str	r2, [r3, #24]
	.loc 1 113 2
	ldr	r3, .L3
	ldr	r3, [r3, #416]
	ldr	r3, [r3, #24]
	.syntax unified
@ 113 "RTOS/Src/task_scheduler.c" 1
	mov r0,r3 
	 msr PSP,r0
@ 0 "" 2
	.loc 1 114 2
@ 114 "RTOS/Src/task_scheduler.c" 1
	BX LR
@ 0 "" 2
	.loc 1 116 1
	.thumb
	.syntax unified
	nop
.L4:
	.align	2
.L3:
	.word	OS_Control
	.cfi_endproc
.LFE126:
	.size	PendSV_Handler, .-PendSV_Handler
	.global	IdleTaskLed
	.bss
	.type	IdleTaskLed, %object
	.size	IdleTaskLed, 1
IdleTaskLed:
	.space	1
	.text
	.align	1
	.global	MHxRTOS_IdleTask
	.syntax unified
	.thumb
	.thumb_func
	.type	MHxRTOS_IdleTask, %function
MHxRTOS_IdleTask:
.LFB127:
	.loc 1 122 1
	.cfi_startproc
	@ args = 0, pretend = 0, frame = 0
	@ frame_needed = 1, uses_anonymous_args = 0
	@ link register save eliminated.
	push	{r7}
	.cfi_def_cfa_offset 4
	.cfi_offset 7, -4
	add	r7, sp, #0
	.cfi_def_cfa_register 7
.L6:
	.loc 1 132 15 discriminator 1
	ldr	r3, .L7
	ldrb	r3, [r3]	@ zero_extendqisi2
	eor	r3, r3, #1
	uxtb	r2, r3
	ldr	r3, .L7
	strb	r2, [r3]
	.loc 1 134 3 discriminator 1
	.syntax unified
@ 134 "RTOS/Src/task_scheduler.c" 1
	wfi
@ 0 "" 2
	.loc 1 132 15 discriminator 1
	.thumb
	.syntax unified
	nop
	b	.L6
.L8:
	.align	2
.L7:
	.word	IdleTaskLed
	.cfi_endproc
.LFE127:
	.size	MHxRTOS_IdleTask, .-MHxRTOS_IdleTask
	.align	1
	.global	MHxRTOS_Create_MainStack
	.syntax unified
	.thumb
	.thumb_func
	.type	MHxRTOS_Create_MainStack, %function
MHxRTOS_Create_MainStack:
.LFB128:
	.loc 1 148 1
	.cfi_startproc
	@ args = 0, pretend = 0, frame = 0
	@ frame_needed = 1, uses_anonymous_args = 0
	@ link register save eliminated.
	push	{r7}
	.cfi_def_cfa_offset 4
	.cfi_offset 7, -4
	add	r7, sp, #0
	.cfi_def_cfa_register 7
	.loc 1 149 25
	ldr	r2, .L10
	ldr	r3, .L10+4
	str	r2, [r3, #400]
	.loc 1 150 37
	ldr	r3, .L10+4
	ldr	r3, [r3, #400]
	.loc 1 150 50
	sub	r3, r3, #3072
	.loc 1 150 25
	ldr	r2, .L10+4
	str	r3, [r2, #404]
	.loc 1 152 43
	ldr	r3, .L10+4
	ldr	r3, [r3, #404]
	.loc 1 152 56
	subs	r3, r3, #8
	.loc 1 152 30
	ldr	r2, .L10+4
	str	r3, [r2, #408]
	.loc 1 155 1
	nop
	mov	sp, r7
	.cfi_def_cfa_register 13
	@ sp needed
	pop	{r7}
	.cfi_restore 7
	.cfi_def_cfa_offset 0
	bx	lr
.L11:
	.align	2
.L10:
	.word	_estack
	.word	OS_Control
	.cfi_endproc
.LFE128:
	.size	MHxRTOS_Create_MainStack, .-MHxRTOS_Create_MainStack
	.section	.rodata
	.align	2
.LC0:
	.ascii	"idleTask\000"
	.text
	.align	1
	.global	MHxRTOS_init
	.syntax unified
	.thumb
	.thumb_func
	.type	MHxRTOS_init, %function
MHxRTOS_init:
.LFB129:
	.loc 1 158 1
	.cfi_startproc
	@ args = 0, pretend = 0, frame = 8
	@ frame_needed = 1, uses_anonymous_args = 0
	push	{r7, lr}
	.cfi_def_cfa_offset 8
	.cfi_offset 7, -8
	.cfi_offset 14, -4
	sub	sp, sp, #8
	.cfi_def_cfa_offset 16
	add	r7, sp, #0
	.cfi_def_cfa_register 7
	.loc 1 159 18
	movs	r3, #0
	strb	r3, [r7, #7]
	.loc 1 162 22
	ldr	r3, .L15
	movs	r2, #0
	strb	r2, [r3, #424]
	.loc 1 165 2
	bl	MHxRTOS_Create_MainStack
	.loc 1 168 6
	movs	r2, #100
	ldr	r1, .L15+4
	ldr	r0, .L15+8
	bl	FIFO_init
	mov	r3, r0
	.loc 1 168 5
	cmp	r3, #0
	beq	.L13
	.loc 1 170 9
	ldrb	r3, [r7, #7]
	adds	r3, r3, #1
	strb	r3, [r7, #7]
.L13:
	.loc 1 174 2
	ldr	r3, .L15+12
	ldr	r2, .L15+16
	ldm	r2, {r0, r1, r2}
	stmia	r3!, {r0, r1}
	strb	r2, [r3]
	.loc 1 175 28
	ldr	r3, .L15+20
	movs	r2, #255
	strb	r2, [r3, #4]
	.loc 1 176 31
	ldr	r3, .L15+20
	ldr	r2, .L15+24
	str	r2, [r3, #8]
	.loc 1 177 30
	ldr	r3, .L15+20
	mov	r2, #300
	str	r2, [r3]
	.loc 1 179 11
	ldr	r0, .L15+20
	bl	MHxRTOS_CreateTask
	mov	r3, r0
	mov	r2, r3
	.loc 1 179 8
	ldrb	r3, [r7, #7]
	add	r3, r3, r2
	strb	r3, [r7, #7]
	.loc 1 181 9
	ldrb	r3, [r7, #7]	@ zero_extendqisi2
	.loc 1 183 1
	mov	r0, r3
	adds	r7, r7, #8
	.cfi_def_cfa_offset 8
	mov	sp, r7
	.cfi_def_cfa_register 13
	@ sp needed
	pop	{r7, pc}
.L16:
	.align	2
.L15:
	.word	OS_Control
	.word	Ready_QUEUE_FIFO
	.word	Ready_QUEUE
	.word	MHxRTOS_idleTask+28
	.word	.LC0
	.word	MHxRTOS_idleTask
	.word	MHxRTOS_IdleTask
	.cfi_endproc
.LFE129:
	.size	MHxRTOS_init, .-MHxRTOS_init
	.align	1
	.global	MHxRTOS_Create_TaskStack
	.syntax unified
	.thumb
	.thumb_func
	.type	MHxRTOS_Create_TaskStack, %function
MHxRTOS_Create_TaskStack:
.LFB130:
	.loc 1 187 1
	.cfi_startproc
	@ args = 0, pretend = 0, frame = 16
	@ frame_needed = 1, uses_anonymous_args = 0
	@ link register save eliminated.
	push	{r7}
	.cfi_def_cfa_offset 4
	.cfi_offset 7, -4
	sub	sp, sp, #20
	.cfi_def_cfa_offset 24
	add	r7, sp, #0
	.cfi_def_cfa_register 7
	str	r0, [r7, #4]
	.loc 1 202 26
	ldr	r3, [r7, #4]
	ldr	r3, [r3, #16]
	mov	r2, r3
	.loc 1 202 20
	ldr	r3, [r7, #4]
	str	r2, [r3, #24]
	.loc 1 204 6
	ldr	r3, [r7, #4]
	ldr	r3, [r3, #24]
	.loc 1 204 19
	subs	r2, r3, #4
	ldr	r3, [r7, #4]
	str	r2, [r3, #24]
	.loc 1 205 8
	ldr	r3, [r7, #4]
	ldr	r3, [r3, #24]
	.loc 1 205 23
	mov	r2, #16777216
	str	r2, [r3]
	.loc 1 207 6
	ldr	r3, [r7, #4]
	ldr	r3, [r3, #24]
	.loc 1 207 19
	subs	r2, r3, #4
	ldr	r3, [r7, #4]
	str	r2, [r3, #24]
	.loc 1 208 43
	ldr	r3, [r7, #4]
	ldr	r2, [r3, #8]
	.loc 1 208 8
	ldr	r3, [r7, #4]
	ldr	r3, [r3, #24]
	.loc 1 208 23
	str	r2, [r3]
	.loc 1 210 6
	ldr	r3, [r7, #4]
	ldr	r3, [r3, #24]
	.loc 1 210 19
	subs	r2, r3, #4
	ldr	r3, [r7, #4]
	str	r2, [r3, #24]
	.loc 1 211 8
	ldr	r3, [r7, #4]
	ldr	r3, [r3, #24]
	.loc 1 211 24
	mvn	r2, #2
	str	r2, [r3]
.LBB2:
	.loc 1 213 12
	movs	r3, #0
	str	r3, [r7, #12]
	.loc 1 213 2
	b	.L18
.L19:
	.loc 1 215 7 discriminator 3
	ldr	r3, [r7, #4]
	ldr	r3, [r3, #24]
	.loc 1 215 20 discriminator 3
	subs	r2, r3, #4
	ldr	r3, [r7, #4]
	str	r2, [r3, #24]
	.loc 1 216 9 discriminator 3
	ldr	r3, [r7, #4]
	ldr	r3, [r3, #24]
	.loc 1 216 25 discriminator 3
	movs	r2, #0
	str	r2, [r3]
	.loc 1 213 27 discriminator 3
	ldr	r3, [r7, #12]
	adds	r3, r3, #1
	str	r3, [r7, #12]
.L18:
	.loc 1 213 19 discriminator 1
	ldr	r3, [r7, #12]
	cmp	r3, #12
	ble	.L19
.LBE2:
	.loc 1 222 1
	nop
	nop
	adds	r7, r7, #20
	.cfi_def_cfa_offset 4
	mov	sp, r7
	.cfi_def_cfa_register 13
	@ sp needed
	pop	{r7}
	.cfi_restore 7
	.cfi_def_cfa_offset 0
	bx	lr
	.cfi_endproc
.LFE130:
	.size	MHxRTOS_Create_TaskStack, .-MHxRTOS_Create_TaskStack
	.align	1
	.global	MHxRTOS_CreateTask
	.syntax unified
	.thumb
	.thumb_func
	.type	MHxRTOS_CreateTask, %function
MHxRTOS_CreateTask:
.LFB131:
	.loc 1 224 1
	.cfi_startproc
	@ args = 0, pretend = 0, frame = 16
	@ frame_needed = 1, uses_anonymous_args = 0
	push	{r7, lr}
	.cfi_def_cfa_offset 8
	.cfi_offset 7, -8
	.cfi_offset 14, -4
	sub	sp, sp, #16
	.cfi_def_cfa_offset 24
	add	r7, sp, #0
	.cfi_def_cfa_register 7
	str	r0, [r7, #4]
	.loc 1 225 18
	movs	r3, #0
	strb	r3, [r7, #15]
	.loc 1 229 32
	ldr	r3, .L23
	ldr	r2, [r3, #408]
	.loc 1 229 20
	ldr	r3, [r7, #4]
	str	r2, [r3, #16]
	.loc 1 230 26
	ldr	r3, [r7, #4]
	ldr	r2, [r3, #16]
	.loc 1 230 46
	ldr	r3, [r7, #4]
	ldr	r3, [r3]
	.loc 1 230 40
	subs	r2, r2, r3
	.loc 1 230 20
	ldr	r3, [r7, #4]
	str	r2, [r3, #20]
	.loc 1 240 9
	ldr	r3, [r7, #4]
	ldr	r3, [r3, #20]
	.loc 1 240 25
	ldr	r2, .L23+4
	.loc 1 240 4
	cmp	r3, r2
	bcs	.L21
	.loc 1 242 10
	movs	r3, #2
	b	.L22
.L21:
	.loc 1 246 37
	ldr	r3, [r7, #4]
	ldr	r3, [r3, #20]
	.loc 1 246 51
	subs	r3, r3, #8
	.loc 1 246 30
	ldr	r2, .L23
	str	r3, [r2, #408]
	.loc 1 249 2
	ldr	r0, [r7, #4]
	bl	MHxRTOS_Create_TaskStack
	.loc 1 252 31
	ldr	r3, .L23
	ldr	r3, [r3, #412]
	.loc 1 252 48
	ldr	r1, .L23
	ldr	r2, [r7, #4]
	str	r2, [r1, r3, lsl #2]
	.loc 1 253 12
	ldr	r3, .L23
	ldr	r3, [r3, #412]
	.loc 1 253 28
	adds	r3, r3, #1
	ldr	r2, .L23
	str	r3, [r2, #412]
	.loc 1 257 18
	ldr	r3, [r7, #4]
	movs	r2, #0
	strb	r2, [r3, #58]
	.loc 1 259 9
	ldrb	r3, [r7, #15]	@ zero_extendqisi2
.L22:
	.loc 1 261 1
	mov	r0, r3
	adds	r7, r7, #16
	.cfi_def_cfa_offset 8
	mov	sp, r7
	.cfi_def_cfa_register 13
	@ sp needed
	pop	{r7, pc}
.L24:
	.align	2
.L23:
	.word	OS_Control
	.word	_eheap
	.cfi_endproc
.LFE131:
	.size	MHxRTOS_CreateTask, .-MHxRTOS_CreateTask
	.align	1
	.global	bubbleSort
	.syntax unified
	.thumb
	.thumb_func
	.type	bubbleSort, %function
bubbleSort:
.LFB132:
	.loc 1 265 1
	.cfi_startproc
	@ args = 0, pretend = 0, frame = 16
	@ frame_needed = 1, uses_anonymous_args = 0
	@ link register save eliminated.
	push	{r7}
	.cfi_def_cfa_offset 4
	.cfi_offset 7, -4
	sub	sp, sp, #20
	.cfi_def_cfa_offset 24
	add	r7, sp, #0
	.cfi_def_cfa_register 7
	.loc 1 268 4
	ldr	r3, .L31
	ldr	r3, [r3, #412]
	str	r3, [r7, #4]
	.loc 1 269 9
	movs	r3, #0
	str	r3, [r7, #12]
	.loc 1 269 2
	b	.L26
.L30:
	.loc 1 272 10
	movs	r3, #0
	str	r3, [r7, #8]
	.loc 1 272 3
	b	.L27
.L29:
	.loc 1 273 26
	ldr	r2, .L31
	ldr	r3, [r7, #8]
	ldr	r3, [r2, r3, lsl #2]
	.loc 1 273 29
	ldrb	r2, [r3, #4]	@ zero_extendqisi2
	.loc 1 273 63
	ldr	r3, [r7, #8]
	adds	r3, r3, #1
	.loc 1 273 60
	ldr	r1, .L31
	ldr	r3, [r1, r3, lsl #2]
	.loc 1 273 67
	ldrb	r3, [r3, #4]	@ zero_extendqisi2
	.loc 1 273 7
	cmp	r2, r3
	bls	.L28
	.loc 1 275 10
	ldr	r2, .L31
	ldr	r3, [r7, #8]
	ldr	r3, [r2, r3, lsl #2]
	str	r3, [r7]
	.loc 1 276 50
	ldr	r3, [r7, #8]
	adds	r3, r3, #1
	.loc 1 276 47
	ldr	r2, .L31
	ldr	r2, [r2, r3, lsl #2]
	.loc 1 276 27
	ldr	r1, .L31
	ldr	r3, [r7, #8]
	str	r2, [r1, r3, lsl #2]
	.loc 1 277 26
	ldr	r3, [r7, #8]
	adds	r3, r3, #1
	.loc 1 277 31
	ldr	r1, .L31
	ldr	r2, [r7]
	str	r2, [r1, r3, lsl #2]
.L28:
	.loc 1 272 31 discriminator 2
	ldr	r3, [r7, #8]
	adds	r3, r3, #1
	str	r3, [r7, #8]
.L27:
	.loc 1 272 21 discriminator 1
	ldr	r2, [r7, #4]
	ldr	r3, [r7, #12]
	subs	r3, r2, r3
	.loc 1 272 25 discriminator 1
	subs	r3, r3, #1
	.loc 1 272 17 discriminator 1
	ldr	r2, [r7, #8]
	cmp	r2, r3
	bcc	.L29
	.loc 1 269 26 discriminator 2
	ldr	r3, [r7, #12]
	adds	r3, r3, #1
	str	r3, [r7, #12]
.L26:
	.loc 1 269 20 discriminator 1
	ldr	r3, [r7, #4]
	subs	r3, r3, #1
	.loc 1 269 16 discriminator 1
	ldr	r2, [r7, #12]
	cmp	r2, r3
	bcc	.L30
	.loc 1 280 1
	nop
	nop
	adds	r7, r7, #20
	.cfi_def_cfa_offset 4
	mov	sp, r7
	.cfi_def_cfa_register 13
	@ sp needed
	pop	{r7}
	.cfi_restore 7
	.cfi_def_cfa_offset 0
	bx	lr
.L32:
	.align	2
.L31:
	.word	OS_Control
	.cfi_endproc
.LFE132:
	.size	bubbleSort, .-bubbleSort
	.align	1
	.global	MHxRTOS_Update_Schadule_tables
	.syntax unified
	.thumb
	.thumb_func
	.type	MHxRTOS_Update_Schadule_tables, %function
MHxRTOS_Update_Schadule_tables:
.LFB133:
	.loc 1 283 1
	.cfi_startproc
	@ args = 0, pretend = 0, frame = 16
	@ frame_needed = 1, uses_anonymous_args = 0
	push	{r7, lr}
	.cfi_def_cfa_offset 8
	.cfi_offset 7, -8
	.cfi_offset 14, -4
	sub	sp, sp, #16
	.cfi_def_cfa_offset 24
	add	r7, sp, #0
	.cfi_def_cfa_register 7
	.loc 1 284 12
	movs	r3, #0
	str	r3, [r7]
	.loc 1 287 15
	movs	r3, #0
	str	r3, [r7, #12]
	.loc 1 290 2
	bl	bubbleSort
	.loc 1 292 7
	nop
.L34:
	.loc 1 292 8 discriminator 1
	mov	r3, r7
	mov	r1, r3
	ldr	r0, .L44
	bl	FIFO_dequeue
	mov	r3, r0
	.loc 1 292 66 discriminator 1
	cmp	r3, #2
	bne	.L34
	.loc 1 296 7
	b	.L35
.L41:
	.loc 1 298 9
	ldr	r2, .L44+4
	ldr	r3, [r7, #12]
	ldr	r3, [r2, r3, lsl #2]
	str	r3, [r7, #8]
	.loc 1 299 35
	ldr	r3, [r7, #12]
	adds	r3, r3, #1
	.loc 1 299 13
	ldr	r2, .L44+4
	ldr	r3, [r2, r3, lsl #2]
	str	r3, [r7, #4]
	.loc 1 300 12
	ldr	r3, [r7, #8]
	ldrb	r3, [r3, #58]	@ zero_extendqisi2
	.loc 1 300 6
	cmp	r3, #0
	beq	.L36
	.loc 1 303 17
	ldr	r3, [r7, #4]
	ldrb	r3, [r3, #58]	@ zero_extendqisi2
	.loc 1 303 7
	cmp	r3, #0
	bne	.L37
	.loc 1 305 5
	ldr	r1, [r7, #8]
	ldr	r0, .L44
	bl	FIFO_enqueue
	.loc 1 306 22
	ldr	r3, [r7, #8]
	movs	r2, #3
	strb	r2, [r3, #58]
	.loc 1 307 5
	b	.L38
.L37:
	.loc 1 310 13
	ldr	r3, [r7, #8]
	ldrb	r2, [r3, #4]	@ zero_extendqisi2
	.loc 1 310 35
	ldr	r3, [r7, #4]
	ldrb	r3, [r3, #4]	@ zero_extendqisi2
	.loc 1 310 7
	cmp	r2, r3
	bcs	.L39
	.loc 1 312 5
	ldr	r1, [r7, #8]
	ldr	r0, .L44
	bl	FIFO_enqueue
	.loc 1 313 22
	ldr	r3, [r7, #8]
	movs	r2, #3
	strb	r2, [r3, #58]
	.loc 1 314 5
	b	.L38
.L39:
	.loc 1 315 19
	ldr	r3, [r7, #8]
	ldrb	r2, [r3, #4]	@ zero_extendqisi2
	.loc 1 315 42
	ldr	r3, [r7, #4]
	ldrb	r3, [r3, #4]	@ zero_extendqisi2
	.loc 1 315 13
	cmp	r2, r3
	bne	.L40
	.loc 1 320 5
	ldr	r1, [r7, #8]
	ldr	r0, .L44
	bl	FIFO_enqueue
	.loc 1 321 22
	ldr	r3, [r7, #8]
	movs	r2, #3
	strb	r2, [r3, #58]
	b	.L36
.L40:
	.loc 1 322 19
	ldr	r3, [r7, #8]
	ldrb	r2, [r3, #4]	@ zero_extendqisi2
	.loc 1 322 41
	ldr	r3, [r7, #4]
	ldrb	r3, [r3, #4]	@ zero_extendqisi2
	.loc 1 322 13
	cmp	r2, r3
	bhi	.L42
.L36:
	.loc 1 330 4
	ldr	r3, [r7, #12]
	adds	r3, r3, #1
	str	r3, [r7, #12]
.L35:
	.loc 1 296 21
	ldr	r3, .L44+4
	ldr	r3, [r3, #412]
	.loc 1 296 9
	ldr	r2, [r7, #12]
	cmp	r2, r3
	bcc	.L41
	.loc 1 333 1
	b	.L43
.L42:
	.loc 1 325 5
	nop
.L38:
.L43:
	.loc 1 333 1
	nop
	adds	r7, r7, #16
	.cfi_def_cfa_offset 8
	mov	sp, r7
	.cfi_def_cfa_register 13
	@ sp needed
	pop	{r7, pc}
.L45:
	.align	2
.L44:
	.word	Ready_QUEUE
	.word	OS_Control
	.cfi_endproc
.LFE133:
	.size	MHxRTOS_Update_Schadule_tables, .-MHxRTOS_Update_Schadule_tables
	.align	1
	.global	Decide_whatNext
	.syntax unified
	.thumb
	.thumb_func
	.type	Decide_whatNext, %function
Decide_whatNext:
.LFB134:
	.loc 1 343 1
	.cfi_startproc
	@ args = 0, pretend = 0, frame = 0
	@ frame_needed = 1, uses_anonymous_args = 0
	push	{r7, lr}
	.cfi_def_cfa_offset 8
	.cfi_offset 7, -8
	.cfi_offset 14, -4
	add	r7, sp, #0
	.cfi_def_cfa_register 7
	.loc 1 345 17
	ldr	r3, .L50
	ldr	r3, [r3]
	.loc 1 345 5
	cmp	r3, #0
	bne	.L47
	.loc 1 345 44 discriminator 1
	ldr	r3, .L50+4
	ldr	r3, [r3, #416]
	.loc 1 345 56 discriminator 1
	ldrb	r3, [r3, #58]	@ zero_extendqisi2
	.loc 1 345 31 discriminator 1
	cmp	r3, #0
	beq	.L47
	.loc 1 347 13
	ldr	r3, .L50+4
	ldr	r3, [r3, #416]
	.loc 1 347 37
	movs	r2, #1
	strb	r2, [r3, #58]
	.loc 1 349 3
	ldr	r3, .L50+4
	ldr	r3, [r3, #416]
	mov	r1, r3
	ldr	r0, .L50
	bl	FIFO_enqueue
	.loc 1 350 35
	ldr	r3, .L50+4
	ldr	r3, [r3, #416]
	.loc 1 350 23
	ldr	r2, .L50+4
	str	r3, [r2, #420]
	.loc 1 362 1
	b	.L49
.L47:
	.loc 1 353 3
	ldr	r1, .L50+8
	ldr	r0, .L50
	bl	FIFO_dequeue
	.loc 1 354 13
	ldr	r3, .L50+4
	ldr	r3, [r3, #420]
	.loc 1 354 34
	movs	r2, #1
	strb	r2, [r3, #58]
	.loc 1 356 18
	ldr	r3, .L50+4
	ldr	r3, [r3, #416]
	.loc 1 356 30
	ldrb	r2, [r3, #4]	@ zero_extendqisi2
	.loc 1 356 54
	ldr	r3, .L50+4
	ldr	r3, [r3, #420]
	.loc 1 356 63
	ldrb	r3, [r3, #4]	@ zero_extendqisi2
	.loc 1 356 6
	cmp	r2, r3
	bne	.L49
	.loc 1 356 88 discriminator 1
	ldr	r3, .L50+4
	ldr	r3, [r3, #416]
	.loc 1 356 100 discriminator 1
	ldrb	r3, [r3, #58]	@ zero_extendqisi2
	.loc 1 356 75 discriminator 1
	cmp	r3, #0
	beq	.L49
	.loc 1 358 4
	ldr	r3, .L50+4
	ldr	r3, [r3, #416]
	mov	r1, r3
	ldr	r0, .L50
	bl	FIFO_enqueue
	.loc 1 359 14
	ldr	r3, .L50+4
	ldr	r3, [r3, #416]
	.loc 1 359 38
	movs	r2, #3
	strb	r2, [r3, #58]
.L49:
	.loc 1 362 1
	nop
	pop	{r7, pc}
.L51:
	.align	2
.L50:
	.word	Ready_QUEUE
	.word	OS_Control
	.word	OS_Control+420
	.cfi_endproc
.LFE134:
	.size	Decide_whatNext, .-Decide_whatNext
	.align	1
	.global	OS_SVC
	.syntax unified
	.thumb
	.thumb_func
	.type	OS_SVC, %function
OS_SVC:
.LFB135:
	.loc 1 366 1
	.cfi_startproc
	@ args = 0, pretend = 0, frame = 16
	@ frame_needed = 1, uses_anonymous_args = 0
	push	{r7, lr}
	.cfi_def_cfa_offset 8
	.cfi_offset 7, -8
	.cfi_offset 14, -4
	sub	sp, sp, #16
	.cfi_def_cfa_offset 24
	add	r7, sp, #0
	.cfi_def_cfa_register 7
	str	r0, [r7, #4]
	.loc 1 369 62
	ldr	r3, [r7, #4]
	adds	r3, r3, #24
	ldr	r3, [r3]
	.loc 1 369 66
	subs	r3, r3, #2
	.loc 1 369 13
	ldrb	r3, [r3]
	strb	r3, [r7, #15]
	.loc 1 371 2
	ldrb	r3, [r7, #15]	@ zero_extendqisi2
	cmp	r3, #1
	bgt	.L53
	cmp	r3, #0
	bge	.L54
	.loc 1 398 1
	b	.L59
.L53:
	.loc 1 371 2
	cmp	r3, #2
	beq	.L56
	.loc 1 398 1
	b	.L59
.L54:
	.loc 1 376 3
	bl	MHxRTOS_Update_Schadule_tables
	.loc 1 378 17
	ldr	r3, .L60
	ldrb	r3, [r3, #424]	@ zero_extendqisi2
	.loc 1 378 6
	cmp	r3, #1
	bne	.L58
	.loc 1 380 25
	ldr	r3, .L60
	ldr	r3, [r3, #416]
	.loc 1 380 37
	adds	r3, r3, #28
	.loc 1 380 8
	ldr	r1, .L60+4
	mov	r0, r3
	bl	strcmp
	mov	r3, r0
	.loc 1 380 7
	cmp	r3, #0
	beq	.L58
	.loc 1 383 5
	bl	Decide_whatNext
	.loc 1 386 5
	bl	trigger_OS_PendSV
	.loc 1 390 3
	b	.L58
.L56:
	.loc 1 392 3
	bl	MHxRTOS_Update_Schadule_tables
	.loc 1 395 3
	b	.L55
.L58:
	.loc 1 390 3
	nop
.L55:
.L59:
	.loc 1 398 1
	nop
	adds	r7, r7, #16
	.cfi_def_cfa_offset 8
	mov	sp, r7
	.cfi_def_cfa_register 13
	@ sp needed
	pop	{r7, pc}
.L61:
	.align	2
.L60:
	.word	OS_Control
	.word	.LC0
	.cfi_endproc
.LFE135:
	.size	OS_SVC, .-OS_SVC
	.align	1
	.global	MHxRTOS_OS_SVC_Set
	.syntax unified
	.thumb
	.thumb_func
	.type	MHxRTOS_OS_SVC_Set, %function
MHxRTOS_OS_SVC_Set:
.LFB136:
	.loc 1 402 1
	.cfi_startproc
	@ args = 0, pretend = 0, frame = 8
	@ frame_needed = 1, uses_anonymous_args = 0
	@ link register save eliminated.
	push	{r7}
	.cfi_def_cfa_offset 4
	.cfi_offset 7, -4
	sub	sp, sp, #12
	.cfi_def_cfa_offset 16
	add	r7, sp, #0
	.cfi_def_cfa_register 7
	mov	r3, r0
	strb	r3, [r7, #7]
	.loc 1 403 2
	ldrb	r3, [r7, #7]	@ zero_extendqisi2
	cmp	r3, #4
	bhi	.L70
	adr	r2, .L65
	ldr	pc, [r2, r3, lsl #2]
	.p2align 2
.L65:
	.word	.L69+1
	.word	.L68+1
	.word	.L67+1
	.word	.L66+1
	.word	.L64+1
	.p2align 1
.L69:
	.loc 1 406 3
	.syntax unified
@ 406 "RTOS/Src/task_scheduler.c" 1
	svc #0x00
@ 0 "" 2
	.loc 1 407 3
	.thumb
	.syntax unified
	b	.L63
.L68:
	.loc 1 409 3
	.syntax unified
@ 409 "RTOS/Src/task_scheduler.c" 1
	svc #0x01
@ 0 "" 2
	.loc 1 410 3
	.thumb
	.syntax unified
	b	.L63
.L67:
	.loc 1 412 3
	.syntax unified
@ 412 "RTOS/Src/task_scheduler.c" 1
	svc #0x02
@ 0 "" 2
	.loc 1 413 3
	.thumb
	.syntax unified
	b	.L63
.L66:
	.loc 1 415 3
	.syntax unified
@ 415 "RTOS/Src/task_scheduler.c" 1
	svc #0x03
@ 0 "" 2
	.loc 1 416 3
	.thumb
	.syntax unified
	b	.L63
.L64:
	.loc 1 418 3
	.syntax unified
@ 418 "RTOS/Src/task_scheduler.c" 1
	svc #0x04
@ 0 "" 2
	.loc 1 419 3
	.thumb
	.syntax unified
	nop
.L63:
.L70:
	.loc 1 421 1
	nop
	adds	r7, r7, #12
	.cfi_def_cfa_offset 4
	mov	sp, r7
	.cfi_def_cfa_register 13
	@ sp needed
	pop	{r7}
	.cfi_restore 7
	.cfi_def_cfa_offset 0
	bx	lr
	.cfi_endproc
.LFE136:
	.size	MHxRTOS_OS_SVC_Set, .-MHxRTOS_OS_SVC_Set
	.align	1
	.global	MHxRTOS_ActivateTask
	.syntax unified
	.thumb
	.thumb_func
	.type	MHxRTOS_ActivateTask, %function
MHxRTOS_ActivateTask:
.LFB137:
	.loc 1 424 1
	.cfi_startproc
	@ args = 0, pretend = 0, frame = 8
	@ frame_needed = 1, uses_anonymous_args = 0
	push	{r7, lr}
	.cfi_def_cfa_offset 8
	.cfi_offset 7, -8
	.cfi_offset 14, -4
	sub	sp, sp, #8
	.cfi_def_cfa_offset 16
	add	r7, sp, #0
	.cfi_def_cfa_register 7
	str	r0, [r7, #4]
	.loc 1 425 18
	ldr	r3, [r7, #4]
	movs	r2, #2
	strb	r2, [r3, #58]
	.loc 1 426 2
	movs	r0, #0
	bl	MHxRTOS_OS_SVC_Set
	.loc 1 427 1
	nop
	adds	r7, r7, #8
	.cfi_def_cfa_offset 8
	mov	sp, r7
	.cfi_def_cfa_register 13
	@ sp needed
	pop	{r7, pc}
	.cfi_endproc
.LFE137:
	.size	MHxRTOS_ActivateTask, .-MHxRTOS_ActivateTask
	.align	1
	.global	MHxRTOS_TerminateTask
	.syntax unified
	.thumb
	.thumb_func
	.type	MHxRTOS_TerminateTask, %function
MHxRTOS_TerminateTask:
.LFB138:
	.loc 1 429 1
	.cfi_startproc
	@ args = 0, pretend = 0, frame = 8
	@ frame_needed = 1, uses_anonymous_args = 0
	push	{r7, lr}
	.cfi_def_cfa_offset 8
	.cfi_offset 7, -8
	.cfi_offset 14, -4
	sub	sp, sp, #8
	.cfi_def_cfa_offset 16
	add	r7, sp, #0
	.cfi_def_cfa_register 7
	str	r0, [r7, #4]
	.loc 1 430 18
	ldr	r3, [r7, #4]
	movs	r2, #0
	strb	r2, [r3, #58]
	.loc 1 431 2
	movs	r0, #1
	bl	MHxRTOS_OS_SVC_Set
	.loc 1 432 1
	nop
	adds	r7, r7, #8
	.cfi_def_cfa_offset 8
	mov	sp, r7
	.cfi_def_cfa_register 13
	@ sp needed
	pop	{r7, pc}
	.cfi_endproc
.LFE138:
	.size	MHxRTOS_TerminateTask, .-MHxRTOS_TerminateTask
	.align	1
	.global	MHxRTOS_TaskWait
	.syntax unified
	.thumb
	.thumb_func
	.type	MHxRTOS_TaskWait, %function
MHxRTOS_TaskWait:
.LFB139:
	.loc 1 434 1
	.cfi_startproc
	@ args = 0, pretend = 0, frame = 8
	@ frame_needed = 1, uses_anonymous_args = 0
	push	{r7, lr}
	.cfi_def_cfa_offset 8
	.cfi_offset 7, -8
	.cfi_offset 14, -4
	sub	sp, sp, #8
	.cfi_def_cfa_offset 16
	add	r7, sp, #0
	.cfi_def_cfa_register 7
	str	r0, [r7, #4]
	str	r1, [r7]
	.loc 1 435 35
	ldr	r3, [r7]
	movs	r2, #0
	strb	r2, [r3, #60]
	.loc 1 436 38
	ldr	r3, [r7]
	ldr	r2, [r7, #4]
	str	r2, [r3, #64]
	.loc 1 438 22
	ldr	r3, [r7]
	movs	r2, #0
	strb	r2, [r3, #58]
	.loc 1 440 2
	movs	r0, #1
	bl	MHxRTOS_OS_SVC_Set
	.loc 1 442 1
	nop
	adds	r7, r7, #8
	.cfi_def_cfa_offset 8
	mov	sp, r7
	.cfi_def_cfa_register 13
	@ sp needed
	pop	{r7, pc}
	.cfi_endproc
.LFE139:
	.size	MHxRTOS_TaskWait, .-MHxRTOS_TaskWait
	.align	1
	.global	MHxRTOS_STARTOS
	.syntax unified
	.thumb
	.thumb_func
	.type	MHxRTOS_STARTOS, %function
MHxRTOS_STARTOS:
.LFB140:
	.loc 1 447 1
	.cfi_startproc
	@ args = 0, pretend = 0, frame = 0
	@ frame_needed = 1, uses_anonymous_args = 0
	push	{r7, lr}
	.cfi_def_cfa_offset 8
	.cfi_offset 7, -8
	.cfi_offset 14, -4
	add	r7, sp, #0
	.cfi_def_cfa_register 7
	.loc 1 448 22
	ldr	r3, .L76
	movs	r2, #1
	strb	r2, [r3, #424]
	.loc 1 450 25
	ldr	r3, .L76
	ldr	r2, .L76+4
	str	r2, [r3, #416]
	.loc 1 452 2
	ldr	r0, .L76+4
	bl	MHxRTOS_ActivateTask
	.loc 1 456 2
	ldr	r3, .L76
	ldr	r3, [r3, #416]
	ldr	r3, [r3, #24]
	.syntax unified
@ 456 "RTOS/Src/task_scheduler.c" 1
	mov r0,r3 
	 msr PSP,r0
@ 0 "" 2
	.loc 1 458 2
@ 458 "RTOS/Src/task_scheduler.c" 1
	mrs r0, CONTROL 
	 mov r1,#0x02 
	 orr r0,r0,r1 
	 msr CONTROL,r0
@ 0 "" 2
	.loc 1 459 2
@ 459 "RTOS/Src/task_scheduler.c" 1
	 mrs r3, CONTROL  
	 orr r3,r3,#0x1   
	 msr CONTROL, r3 
@ 0 "" 2
	.loc 1 460 18
	.thumb
	.syntax unified
	ldr	r3, .L76+4
	ldr	r3, [r3, #8]
	.loc 1 460 2
	blx	r3
.LVL0:
	.loc 1 461 1
	nop
	pop	{r7, pc}
.L77:
	.align	2
.L76:
	.word	OS_Control
	.word	MHxRTOS_idleTask
	.cfi_endproc
.LFE140:
	.size	MHxRTOS_STARTOS, .-MHxRTOS_STARTOS
	.align	1
	.global	MHxRTOS_Update_TasksWaitingTime
	.syntax unified
	.thumb
	.thumb_func
	.type	MHxRTOS_Update_TasksWaitingTime, %function
MHxRTOS_Update_TasksWaitingTime:
.LFB141:
	.loc 1 470 1
	.cfi_startproc
	@ args = 0, pretend = 0, frame = 8
	@ frame_needed = 1, uses_anonymous_args = 0
	push	{r7, lr}
	.cfi_def_cfa_offset 8
	.cfi_offset 7, -8
	.cfi_offset 14, -4
	sub	sp, sp, #8
	.cfi_def_cfa_offset 16
	add	r7, sp, #0
	.cfi_def_cfa_register 7
.LBB3:
	.loc 1 471 20
	movs	r3, #0
	str	r3, [r7, #4]
	.loc 1 471 2
	b	.L79
.L81:
	.loc 1 473 25
	ldr	r2, .L82
	ldr	r3, [r7, #4]
	ldr	r3, [r2, r3, lsl #2]
	.loc 1 473 28
	ldrb	r3, [r3, #58]	@ zero_extendqisi2
	.loc 1 473 6
	cmp	r3, #0
	bne	.L80
	.loc 1 475 26
	ldr	r2, .L82
	ldr	r3, [r7, #4]
	ldr	r3, [r2, r3, lsl #2]
	.loc 1 475 44
	ldrb	r3, [r3, #60]	@ zero_extendqisi2
	.loc 1 475 7
	cmp	r3, #0
	bne	.L80
	.loc 1 477 23
	ldr	r2, .L82
	ldr	r3, [r7, #4]
	ldr	r3, [r2, r3, lsl #2]
	.loc 1 477 41
	ldr	r2, [r3, #64]
	.loc 1 477 53
	subs	r2, r2, #1
	str	r2, [r3, #64]
	.loc 1 478 27
	ldr	r2, .L82
	ldr	r3, [r7, #4]
	ldr	r3, [r2, r3, lsl #2]
	.loc 1 478 45
	ldr	r3, [r3, #64]
	.loc 1 478 8
	cmp	r3, #1
	bne	.L80
	.loc 1 480 24
	ldr	r2, .L82
	ldr	r3, [r7, #4]
	ldr	r3, [r2, r3, lsl #2]
	.loc 1 480 52
	movs	r2, #1
	strb	r2, [r3, #60]
	.loc 1 481 24
	ldr	r2, .L82
	ldr	r3, [r7, #4]
	ldr	r3, [r2, r3, lsl #2]
	.loc 1 481 39
	movs	r2, #2
	strb	r2, [r3, #58]
	.loc 1 482 6
	movs	r0, #2
	bl	MHxRTOS_OS_SVC_Set
.L80:
	.loc 1 471 60 discriminator 2
	ldr	r3, [r7, #4]
	adds	r3, r3, #1
	str	r3, [r7, #4]
.L79:
	.loc 1 471 40 discriminator 1
	ldr	r3, .L82
	ldr	r3, [r3, #412]
	.loc 1 471 28 discriminator 1
	ldr	r2, [r7, #4]
	cmp	r2, r3
	bcc	.L81
.LBE3:
	.loc 1 487 1
	nop
	nop
	adds	r7, r7, #8
	.cfi_def_cfa_offset 8
	mov	sp, r7
	.cfi_def_cfa_register 13
	@ sp needed
	pop	{r7, pc}
.L83:
	.align	2
.L82:
	.word	OS_Control
	.cfi_endproc
.LFE141:
	.size	MHxRTOS_Update_TasksWaitingTime, .-MHxRTOS_Update_TasksWaitingTime
	.align	1
	.global	MHxRTOS_AcquireMutex
	.syntax unified
	.thumb
	.thumb_func
	.type	MHxRTOS_AcquireMutex, %function
MHxRTOS_AcquireMutex:
.LFB142:
	.loc 1 494 1
	.cfi_startproc
	@ args = 0, pretend = 0, frame = 8
	@ frame_needed = 1, uses_anonymous_args = 0
	push	{r7, lr}
	.cfi_def_cfa_offset 8
	.cfi_offset 7, -8
	.cfi_offset 14, -4
	sub	sp, sp, #8
	.cfi_def_cfa_offset 16
	add	r7, sp, #0
	.cfi_def_cfa_register 7
	str	r0, [r7, #4]
	str	r1, [r7]
	.loc 1 495 9
	ldr	r3, [r7, #4]
	ldr	r3, [r3, #8]
	.loc 1 495 4
	cmp	r3, #0
	bne	.L85
	.loc 1 497 22
	ldr	r3, [r7, #4]
	ldr	r2, [r7]
	str	r2, [r3, #8]
	b	.L86
.L85:
	.loc 1 500 10
	ldr	r3, [r7, #4]
	ldr	r3, [r3, #12]
	.loc 1 500 5
	cmp	r3, #0
	bne	.L87
	.loc 1 502 20
	ldr	r3, [r7, #4]
	ldr	r2, [r7]
	str	r2, [r3, #12]
	.loc 1 504 20
	ldr	r3, [r7]
	movs	r2, #0
	strb	r2, [r3, #58]
	.loc 1 506 4
	movs	r0, #1
	bl	MHxRTOS_OS_SVC_Set
	b	.L86
.L87:
	.loc 1 509 11
	movs	r3, #3
	b	.L88
.L86:
	.loc 1 513 9
	movs	r3, #0
.L88:
	.loc 1 514 1
	mov	r0, r3
	adds	r7, r7, #8
	.cfi_def_cfa_offset 8
	mov	sp, r7
	.cfi_def_cfa_register 13
	@ sp needed
	pop	{r7, pc}
	.cfi_endproc
.LFE142:
	.size	MHxRTOS_AcquireMutex, .-MHxRTOS_AcquireMutex
	.align	1
	.global	MHxRTOS_ReleaseMutex
	.syntax unified
	.thumb
	.thumb_func
	.type	MHxRTOS_ReleaseMutex, %function
MHxRTOS_ReleaseMutex:
.LFB143:
	.loc 1 516 1
	.cfi_startproc
	@ args = 0, pretend = 0, frame = 8
	@ frame_needed = 1, uses_anonymous_args = 0
	push	{r7, lr}
	.cfi_def_cfa_offset 8
	.cfi_offset 7, -8
	.cfi_offset 14, -4
	sub	sp, sp, #8
	.cfi_def_cfa_offset 16
	add	r7, sp, #0
	.cfi_def_cfa_register 7
	str	r0, [r7, #4]
	.loc 1 517 9
	ldr	r3, [r7, #4]
	ldr	r3, [r3, #8]
	.loc 1 517 4
	cmp	r3, #0
	beq	.L91
	.loc 1 519 28
	ldr	r3, [r7, #4]
	ldr	r2, [r3, #12]
	.loc 1 519 22
	ldr	r3, [r7, #4]
	str	r2, [r3, #8]
	.loc 1 520 20
	ldr	r3, [r7, #4]
	movs	r2, #0
	str	r2, [r3, #12]
	.loc 1 521 7
	ldr	r3, [r7, #4]
	ldr	r3, [r3, #8]
	.loc 1 521 33
	movs	r2, #2
	strb	r2, [r3, #58]
	.loc 1 522 3
	movs	r0, #0
	bl	MHxRTOS_OS_SVC_Set
.L91:
	.loc 1 526 1
	nop
	adds	r7, r7, #8
	.cfi_def_cfa_offset 8
	mov	sp, r7
	.cfi_def_cfa_register 13
	@ sp needed
	pop	{r7, pc}
	.cfi_endproc
.LFE143:
	.size	MHxRTOS_ReleaseMutex, .-MHxRTOS_ReleaseMutex
.Letext0:
	.file 2 "RTOS/Inc/cortex_mx_os_porting.h"
	.file 3 "RTOS/Inc/task_scheduler.h"
	.file 4 "RTOS/Inc/rtos_fifo_queue.h"
	.file 5 "/opt/st/stm32cubeclt_1.16.0/GNU-tools-for-STM32/arm-none-eabi/include/string.h"